; Function Attrs: nounwind uwtable
define hidden range(i32 0, 2) i32 @X509V3_EXT_free(i32 noundef %0, ptr noundef %1) local_unnamed_addr #0 {
  %3 = alloca %struct.v3_ext_method, align 8
  %4 = alloca i64, align 8
  call void @llvm.lifetime.start.p0(i64 104, ptr nonnull %3) #10
  call void @llvm.lifetime.start.p0(i64 8, ptr nonnull %4) #10
  %5 = icmp slt i32 %0, 0
  br i1 %5, label %X509V3_EXT_get_nid.exit.thread, label %6

6:                                                ; preds = %2
  store i32 %0, ptr %3, align 8, !tbaa !17
  br label %.lr.ph.i.i

.lr.ph.i.i:                                       ; preds = %17, %6
  %.01621.i.i = phi i64 [ %.1.i.i, %17 ], [ 0, %6 ]
  %.01720.i.i = phi i64 [ %.118.i.i, %17 ], [ 32, %6 ]
  %7 = add i64 %.01720.i.i, %.01621.i.i
  %8 = lshr i64 %7, 1
  %9 = shl i64 %8, 3
  %10 = getelementptr inbounds nuw i8, ptr @standard_exts, i64 %9
  %11 = load ptr, ptr %10, align 8, !tbaa !15
  %12 = load i32, ptr %11, align 8, !tbaa !17
  %13 = icmp slt i32 %0, %12
  br i1 %13, label %17, label %14

14:                                               ; preds = %.lr.ph.i.i
  %.not.i.i = icmp eq i32 %0, %12
  br i1 %.not.i.i, label %X509V3_EXT_get_nid.exit.thread13, label %15

X509V3_EXT_get_nid.exit.thread13:                 ; preds = %14
  call void @llvm.lifetime.end.p0(i64 8, ptr nonnull %4) #10
  call void @llvm.lifetime.end.p0(i64 104, ptr nonnull %3) #10
  br label %28

15:                                               ; preds = %14
  %16 = add nuw i64 %8, 1
  br label %17

17:                                               ; preds = %15, %.lr.ph.i.i
  %.118.i.i = phi i64 [ %.01720.i.i, %15 ], [ %8, %.lr.ph.i.i ]
  %.1.i.i = phi i64 [ %16, %15 ], [ %.01621.i.i, %.lr.ph.i.i ]
  %18 = icmp ult i64 %.1.i.i, %.118.i.i
  br i1 %18, label %.lr.ph.i.i, label %19, !llvm.loop !18

19:                                               ; preds = %17
  %20 = load ptr, ptr @ext_list, align 8, !tbaa !6
  %.not7.i = icmp eq ptr %20, null
  br i1 %.not7.i, label %X509V3_EXT_get_nid.exit.thread, label %21

21:                                               ; preds = %19
  %22 = call i32 @sk_find(ptr noundef nonnull %20, ptr noundef nonnull %4, ptr noundef nonnull %3) #10
  %.not8.i = icmp eq i32 %22, 0
  br i1 %.not8.i, label %X509V3_EXT_get_nid.exit.thread, label %X509V3_EXT_get_nid.exit

X509V3_EXT_get_nid.exit.thread:                   ; preds = %2, %19, %21
  call void @llvm.lifetime.end.p0(i64 8, ptr nonnull %4) #10
  call void @llvm.lifetime.end.p0(i64 104, ptr nonnull %3) #10
  br label %27

X509V3_EXT_get_nid.exit:                          ; preds = %21
  %23 = load ptr, ptr @ext_list, align 8, !tbaa !6
  %24 = load i64, ptr %4, align 8, !tbaa !20
  %25 = call ptr @sk_value(ptr noundef %23, i64 noundef %24) #10
  call void @llvm.lifetime.end.p0(i64 8, ptr nonnull %4) #10
  call void @llvm.lifetime.end.p0(i64 104, ptr nonnull %3) #10
  %26 = icmp eq ptr %25, null
  br i1 %26, label %27, label %28

27:                                               ; preds = %X509V3_EXT_get_nid.exit.thread, %X509V3_EXT_get_nid.exit
  call void @ERR_put_error(i32 noundef 20, i32 noundef 0, i32 noundef 104, ptr noundef nonnull @.str, i32 noundef 136) #10
  br label %37

28:                                               ; preds = %X509V3_EXT_get_nid.exit.thread13, %X509V3_EXT_get_nid.exit
  %.0.i15 = phi ptr [ %11, %X509V3_EXT_get_nid.exit.thread13 ], [ %25, %X509V3_EXT_get_nid.exit ]
  %29 = getelementptr inbounds nuw i8, ptr %.0.i15, i64 8
  %30 = load ptr, ptr %29, align 8, !tbaa !26
  %.not = icmp eq ptr %30, null
  br i1 %.not, label %32, label %31

31:                                               ; preds = %28
  call void @ASN1_item_free(ptr noundef %1, ptr noundef nonnull %30) #10
  br label %37

32:                                               ; preds = %28
  %33 = getelementptr inbounds nuw i8, ptr %.0.i15, i64 24
  %34 = load ptr, ptr %33, align 8, !tbaa !27
  %.not11 = icmp eq ptr %34, null
  br i1 %.not11, label %36, label %35

35:                                               ; preds = %32
  call void %34(ptr noundef %1) #10
  br label %37

36:                                               ; preds = %32
  call void @ERR_put_error(i32 noundef 20, i32 noundef 0, i32 noundef 104, ptr noundef nonnull @.str, i32 noundef 145) #10
  br label %37

37:                                               ; preds = %31, %35, %36, %27
  %.0 = phi i32 [ 0, %27 ], [ 0, %36 ], [ 1, %35 ], [ 1, %31 ]
  ret i32 %.0
}